; Function Attrs: nofree norecurse nosync nounwind memory(read, argmem: readwrite, inaccessiblemem: none) uwtable
define hidden range(i32 0, 2) i32 @CBS_get_any_ber_asn1_element(ptr noundef captures(none) %0, ptr noundef writeonly captures(address_is_null) %1, ptr noundef writeonly captures(address_is_null) %2, ptr noundef writeonly captures(address_is_null) %3) local_unnamed_addr #10 {
  %.sroa.067.0.copyload.i = load ptr, ptr %0, align 8, !tbaa !14
  %.sroa.9.0..sroa_idx.i = getelementptr inbounds nuw i8, ptr %0, i64 8
  %.sroa.9.0.copyload.i = load i64, ptr %.sroa.9.0..sroa_idx.i, align 8, !tbaa !15
  %5 = icmp eq ptr %1, null
  %6 = icmp eq i64 %.sroa.9.0.copyload.i, 0
  br i1 %6, label %cbs_get_any_asn1_element.exit, label %7

7:                                                ; preds = %4
  %8 = load i8, ptr %.sroa.067.0.copyload.i, align 1, !tbaa !16
  %9 = icmp eq i64 %.sroa.9.0.copyload.i, 1
  br i1 %9, label %cbs_get_any_asn1_element.exit, label %10

10:                                               ; preds = %7
  %11 = getelementptr inbounds nuw i8, ptr %.sroa.067.0.copyload.i, i64 1
  %12 = getelementptr inbounds nuw i8, ptr %.sroa.067.0.copyload.i, i64 2
  %13 = add i64 %.sroa.9.0.copyload.i, -2
  %14 = load i8, ptr %11, align 1, !tbaa !16
  %15 = zext i8 %8 to i32
  %16 = and i32 %15, 31
  %17 = icmp eq i32 %16, 31
  br i1 %17, label %cbs_get_any_asn1_element.exit, label %18

18:                                               ; preds = %10
  %.not43.i = icmp eq ptr %2, null
  br i1 %.not43.i, label %20, label %19

19:                                               ; preds = %18
  store i32 %15, ptr %2, align 4, !tbaa !21
  br label %20

20:                                               ; preds = %19, %18
  %21 = icmp sgt i8 %14, -1
  br i1 %21, label %22, label %24

22:                                               ; preds = %20
  %narrow.i = add nuw i8 %14, 2
  %23 = zext i8 %narrow.i to i64
  %.not48.i = icmp eq ptr %3, null
  br i1 %.not48.i, label %CBS_get_bytes.exit.i, label %CBS_get_bytes.exit.sink.split.i

24:                                               ; preds = %20
  %25 = and i8 %14, 127
  %26 = zext nneg i8 %25 to i64
  %27 = and i8 %8, 32
  %28 = icmp ne i8 %27, 0
  %29 = icmp eq i8 %25, 0
  %or.cond.i = and i1 %28, %29
  br i1 %or.cond.i, label %30, label %33

30:                                               ; preds = %24
  %.not47.i = icmp eq ptr %3, null
  br i1 %.not47.i, label %.thread.i, label %31

31:                                               ; preds = %30
  store i64 2, ptr %3, align 8, !tbaa !15
  %.pre.i = load i64, ptr %.sroa.9.0..sroa_idx.i, align 8, !tbaa !13
  %32 = icmp ult i64 %.pre.i, 2
  br i1 %32, label %cbs_get_any_asn1_element.exit, label %..thread.i_crit_edge

..thread.i_crit_edge:                             ; preds = %31
  %.pre4 = add i64 %.pre.i, -2
  br label %.thread.i

.thread.i:                                        ; preds = %..thread.i_crit_edge, %30
  %.pre-phi = phi i64 [ %.pre4, %..thread.i_crit_edge ], [ %13, %30 ]
  store ptr %12, ptr %0, align 8, !tbaa !6
  store i64 %.pre-phi, ptr %.sroa.9.0..sroa_idx.i, align 8, !tbaa !13
  br i1 %5, label %cbs_get_any_asn1_element.exit, label %CBS_get_bytes.exit53.sink.split.i

33:                                               ; preds = %24
  %34 = add nsw i8 %25, -5
  %or.cond3.i = icmp ult i8 %34, -4
  %35 = icmp ult i64 %13, %26
  %or.cond96.i = select i1 %or.cond3.i, i1 true, i1 %35
  br i1 %or.cond96.i, label %cbs_get_any_asn1_element.exit, label %cbs_get.exit.i.i

cbs_get.exit.i.i:                                 ; preds = %33, %cbs_get.exit.i.i
  %.017.i.i = phi i64 [ %41, %cbs_get.exit.i.i ], [ 0, %33 ]
  %.01016.i.i = phi i32 [ %40, %cbs_get.exit.i.i ], [ 0, %33 ]
  %36 = shl i32 %.01016.i.i, 8
  %37 = getelementptr inbounds nuw i8, ptr %12, i64 %.017.i.i
  %38 = load i8, ptr %37, align 1, !tbaa !16
  %39 = zext i8 %38 to i32
  %40 = or disjoint i32 %36, %39
  %41 = add nuw nsw i64 %.017.i.i, 1
  %exitcond.not.i.i = icmp eq i64 %41, %26
  br i1 %exitcond.not.i.i, label %cbs_get_u.exit.i, label %cbs_get.exit.i.i, !llvm.loop !17

cbs_get_u.exit.i:                                 ; preds = %cbs_get.exit.i.i
  %42 = icmp ult i32 %40, 128
  br i1 %42, label %cbs_get_any_asn1_element.exit, label %43

43:                                               ; preds = %cbs_get_u.exit.i
  %44 = shl i8 %14, 3
  %45 = zext i8 %44 to i32
  %46 = add nsw i32 %45, -8
  %47 = lshr i32 %40, %46
  %48 = icmp eq i32 %47, 0
  br i1 %48, label %cbs_get_any_asn1_element.exit, label %49

49:                                               ; preds = %43
  %50 = zext i32 %40 to i64
  %51 = add nuw nsw i64 %26, 2
  %52 = add nuw nsw i64 %51, %50
  %.not46.i = icmp eq ptr %3, null
  br i1 %.not46.i, label %CBS_get_bytes.exit.i, label %CBS_get_bytes.exit.sink.split.i

CBS_get_bytes.exit.sink.split.i:                  ; preds = %49, %22
  %.sink.i = phi i64 [ 2, %22 ], [ %51, %49 ]
  %.031.ph.i = phi i64 [ %23, %22 ], [ %52, %49 ]
  store i64 %.sink.i, ptr %3, align 8, !tbaa !15
  %.pre = load i64, ptr %.sroa.9.0..sroa_idx.i, align 8, !tbaa !13
  br label %CBS_get_bytes.exit.i

CBS_get_bytes.exit.i:                             ; preds = %CBS_get_bytes.exit.sink.split.i, %49, %22
  %53 = phi i64 [ %.sroa.9.0.copyload.i, %22 ], [ %.sroa.9.0.copyload.i, %49 ], [ %.pre, %CBS_get_bytes.exit.sink.split.i ]
  %.031.i = phi i64 [ %23, %22 ], [ %52, %49 ], [ %.031.ph.i, %CBS_get_bytes.exit.sink.split.i ]
  %54 = icmp ult i64 %53, %.031.i
  br i1 %54, label %cbs_get_any_asn1_element.exit, label %55

55:                                               ; preds = %CBS_get_bytes.exit.i
  %56 = getelementptr inbounds nuw i8, ptr %.sroa.067.0.copyload.i, i64 %.031.i
  store ptr %56, ptr %0, align 8, !tbaa !6
  %57 = sub nuw i64 %53, %.031.i
  store i64 %57, ptr %.sroa.9.0..sroa_idx.i, align 8, !tbaa !13
  br i1 %5, label %cbs_get_any_asn1_element.exit, label %CBS_get_bytes.exit53.sink.split.i

CBS_get_bytes.exit53.sink.split.i:                ; preds = %55, %.thread.i
  %.sink97.i = phi i64 [ 2, %.thread.i ], [ %.031.i, %55 ]
  store ptr %.sroa.067.0.copyload.i, ptr %1, align 8, !tbaa !6
  %.sroa.gep54.i = getelementptr inbounds nuw i8, ptr %1, i64 8
  store i64 %.sink97.i, ptr %.sroa.gep54.i, align 8, !tbaa !13
  br label %cbs_get_any_asn1_element.exit

cbs_get_any_asn1_element.exit:                    ; preds = %4, %7, %10, %31, %.thread.i, %33, %cbs_get_u.exit.i, %43, %CBS_get_bytes.exit.i, %55, %CBS_get_bytes.exit53.sink.split.i
  %.0.i = phi i32 [ 0, %10 ], [ 0, %CBS_get_bytes.exit.i ], [ 1, %55 ], [ 0, %4 ], [ 0, %7 ], [ 1, %.thread.i ], [ 0, %31 ], [ 0, %43 ], [ 0, %cbs_get_u.exit.i ], [ 0, %33 ], [ 1, %CBS_get_bytes.exit53.sink.split.i ]
  ret i32 %.0.i
}